target datalayout = "e-m:e-p270:32:32-p271:32:32-p272:64:64-i64:64-i128:128-f80:128-n8:16:32:64-S128"
target triple = "x86_64-pc-linux-gnu"

%struct.AVFilterContext = type { ptr, ptr, ptr, ptr, ptr, i32, ptr, ptr, i32, ptr, ptr, i32, i32, ptr, ptr, ptr, ptr, i32, ptr, i32, i32 }
%struct.RemapContext = type { ptr, i32, i32, i32, i32, [4 x i8], [4 x i32], %struct.FFFrameSync, ptr }
%struct.FFFrameSync = type { ptr, ptr, i32, %struct.AVRational, i64, ptr, ptr, i32, i32, i8, i8, ptr, i32, i32, i32, i32 }
%struct.AVRational = type { i32, i32 }
%struct.AVChannelLayout = type { i32, i32, %union.anon.1, ptr }
%union.anon.1 = type { i64 }
%struct.ThreadData = type { ptr, ptr, ptr, ptr, i32, i32, i32 }
%struct.AVFrame = type { [8 x ptr], [8 x i32], ptr, i32, i32, i32, i32, i32, %struct.AVRational, i64, i64, %struct.AVRational, i32, ptr, i32, i32, [8 x ptr], ptr, i32, ptr, i32, i32, i32, i32, i32, i32, i32, i64, ptr, i32, ptr, ptr, i64, i64, i64, i64, ptr, %struct.AVChannelLayout, i64 }

; Function Attrs: nounwind uwtable
define internal i32 @remap_packed16_nearest_slice(ptr noundef %0, ptr noundef %1, i32 noundef %2, i32 noundef %3) #1 {
  %5 = alloca ptr, align 8
  %6 = alloca ptr, align 8
  %7 = alloca i32, align 4
  %8 = alloca i32, align 4
  %9 = alloca ptr, align 8
  %10 = alloca ptr, align 8
  %11 = alloca ptr, align 8
  %12 = alloca ptr, align 8
  %13 = alloca ptr, align 8
  %14 = alloca ptr, align 8
  %15 = alloca i32, align 4
  %16 = alloca i32, align 4
  %17 = alloca i32, align 4
  %18 = alloca i32, align 4
  %19 = alloca i32, align 4
  %20 = alloca i32, align 4
  %21 = alloca ptr, align 8
  %22 = alloca ptr, align 8
  %23 = alloca ptr, align 8
  %24 = alloca ptr, align 8
  %25 = alloca i32, align 4
  %26 = alloca i32, align 4
  %27 = alloca i32, align 4
  %28 = alloca i32, align 4
  store ptr %0, ptr %5, align 8, !tbaa !4
  store ptr %1, ptr %6, align 8, !tbaa !58
  store i32 %2, ptr %7, align 4, !tbaa !36
  store i32 %3, ptr %8, align 4, !tbaa !36
  call void @llvm.lifetime.start.p0(i64 8, ptr %9) #8
  %29 = load ptr, ptr %5, align 8, !tbaa !4
  %30 = getelementptr inbounds nuw %struct.AVFilterContext, ptr %29, i32 0, i32 9
  %31 = load ptr, ptr %30, align 8, !tbaa !9
  store ptr %31, ptr %9, align 8, !tbaa !22
  call void @llvm.lifetime.start.p0(i64 8, ptr %10) #8
  %32 = load ptr, ptr %6, align 8, !tbaa !58
  store ptr %32, ptr %10, align 8, !tbaa !59
  call void @llvm.lifetime.start.p0(i64 8, ptr %11) #8
  %33 = load ptr, ptr %10, align 8, !tbaa !59
  %34 = getelementptr inbounds nuw %struct.ThreadData, ptr %33, i32 0, i32 0
  %35 = load ptr, ptr %34, align 8, !tbaa !61
  store ptr %35, ptr %11, align 8, !tbaa !64
  call void @llvm.lifetime.start.p0(i64 8, ptr %12) #8
  %36 = load ptr, ptr %10, align 8, !tbaa !59
  %37 = getelementptr inbounds nuw %struct.ThreadData, ptr %36, i32 0, i32 1
  %38 = load ptr, ptr %37, align 8, !tbaa !65
  store ptr %38, ptr %12, align 8, !tbaa !64
  call void @llvm.lifetime.start.p0(i64 8, ptr %13) #8
  %39 = load ptr, ptr %10, align 8, !tbaa !59
  %40 = getelementptr inbounds nuw %struct.ThreadData, ptr %39, i32 0, i32 2
  %41 = load ptr, ptr %40, align 8, !tbaa !66
  store ptr %41, ptr %13, align 8, !tbaa !64
  call void @llvm.lifetime.start.p0(i64 8, ptr %14) #8
  %42 = load ptr, ptr %10, align 8, !tbaa !59
  %43 = getelementptr inbounds nuw %struct.ThreadData, ptr %42, i32 0, i32 3
  %44 = load ptr, ptr %43, align 8, !tbaa !67
  store ptr %44, ptr %14, align 8, !tbaa !64
  call void @llvm.lifetime.start.p0(i64 4, ptr %15) #8
  %45 = load ptr, ptr %14, align 8, !tbaa !64
  %46 = getelementptr inbounds nuw %struct.AVFrame, ptr %45, i32 0, i32 4
  %47 = load i32, ptr %46, align 4, !tbaa !68
  %48 = load i32, ptr %7, align 4, !tbaa !36
  %49 = mul nsw i32 %47, %48
  %50 = load i32, ptr %8, align 4, !tbaa !36
  %51 = sdiv i32 %49, %50
  store i32 %51, ptr %15, align 4, !tbaa !36
  call void @llvm.lifetime.start.p0(i64 4, ptr %16) #8
  %52 = load ptr, ptr %14, align 8, !tbaa !64
  %53 = getelementptr inbounds nuw %struct.AVFrame, ptr %52, i32 0, i32 4
  %54 = load i32, ptr %53, align 4, !tbaa !68
  %55 = load i32, ptr %7, align 4, !tbaa !36
  %56 = add nsw i32 %55, 1
  %57 = mul nsw i32 %54, %56
  %58 = load i32, ptr %8, align 4, !tbaa !36
  %59 = sdiv i32 %57, %58
  store i32 %59, ptr %16, align 4, !tbaa !36
  call void @llvm.lifetime.start.p0(i64 4, ptr %17) #8
  %60 = load ptr, ptr %14, align 8, !tbaa !64
  %61 = getelementptr inbounds nuw %struct.AVFrame, ptr %60, i32 0, i32 1
  %62 = getelementptr inbounds [8 x i32], ptr %61, i64 0, i64 0
  %63 = load i32, ptr %62, align 8, !tbaa !36
  %64 = sdiv i32 %63, 2
  store i32 %64, ptr %17, align 4, !tbaa !36
  call void @llvm.lifetime.start.p0(i64 4, ptr %18) #8
  %65 = load ptr, ptr %11, align 8, !tbaa !64
  %66 = getelementptr inbounds nuw %struct.AVFrame, ptr %65, i32 0, i32 1
  %67 = getelementptr inbounds [8 x i32], ptr %66, i64 0, i64 0
  %68 = load i32, ptr %67, align 8, !tbaa !36
  %69 = sdiv i32 %68, 2
  store i32 %69, ptr %18, align 4, !tbaa !36
  call void @llvm.lifetime.start.p0(i64 4, ptr %19) #8
  %70 = load ptr, ptr %12, align 8, !tbaa !64
  %71 = getelementptr inbounds nuw %struct.AVFrame, ptr %70, i32 0, i32 1
  %72 = getelementptr inbounds [8 x i32], ptr %71, i64 0, i64 0
  %73 = load i32, ptr %72, align 8, !tbaa !36
  %74 = sdiv i32 %73, 2
  store i32 %74, ptr %19, align 4, !tbaa !36
  call void @llvm.lifetime.start.p0(i64 4, ptr %20) #8
  %75 = load ptr, ptr %13, align 8, !tbaa !64
  %76 = getelementptr inbounds nuw %struct.AVFrame, ptr %75, i32 0, i32 1
  %77 = getelementptr inbounds [8 x i32], ptr %76, i64 0, i64 0
  %78 = load i32, ptr %77, align 8, !tbaa !36
  %79 = sdiv i32 %78, 2
  store i32 %79, ptr %20, align 4, !tbaa !36
  call void @llvm.lifetime.start.p0(i64 8, ptr %21) #8
  %80 = load ptr, ptr %11, align 8, !tbaa !64
  %81 = getelementptr inbounds nuw %struct.AVFrame, ptr %80, i32 0, i32 0
  %82 = getelementptr inbounds [8 x ptr], ptr %81, i64 0, i64 0
  %83 = load ptr, ptr %82, align 8, !tbaa !74
  store ptr %83, ptr %21, align 8, !tbaa !75
  call void @llvm.lifetime.start.p0(i64 8, ptr %22) #8
  %84 = load ptr, ptr %14, align 8, !tbaa !64
  %85 = getelementptr inbounds nuw %struct.AVFrame, ptr %84, i32 0, i32 0
  %86 = getelementptr inbounds [8 x ptr], ptr %85, i64 0, i64 0
  %87 = load ptr, ptr %86, align 8, !tbaa !74
  %88 = load i32, ptr %15, align 4, !tbaa !36
  %89 = load i32, ptr %17, align 4, !tbaa !36
  %90 = mul nsw i32 %88, %89
  %91 = sext i32 %90 to i64
  %92 = getelementptr inbounds i16, ptr %87, i64 %91
  store ptr %92, ptr %22, align 8, !tbaa !75
  call void @llvm.lifetime.start.p0(i64 8, ptr %23) #8
  %93 = load ptr, ptr %12, align 8, !tbaa !64
  %94 = getelementptr inbounds nuw %struct.AVFrame, ptr %93, i32 0, i32 0
  %95 = getelementptr inbounds [8 x ptr], ptr %94, i64 0, i64 0
  %96 = load ptr, ptr %95, align 8, !tbaa !74
  %97 = load i32, ptr %15, align 4, !tbaa !36
  %98 = load i32, ptr %19, align 4, !tbaa !36
  %99 = mul nsw i32 %97, %98
  %100 = sext i32 %99 to i64
  %101 = getelementptr inbounds i16, ptr %96, i64 %100
  store ptr %101, ptr %23, align 8, !tbaa !75
  call void @llvm.lifetime.start.p0(i64 8, ptr %24) #8
  %102 = load ptr, ptr %13, align 8, !tbaa !64
  %103 = getelementptr inbounds nuw %struct.AVFrame, ptr %102, i32 0, i32 0
  %104 = getelementptr inbounds [8 x ptr], ptr %103, i64 0, i64 0
  %105 = load ptr, ptr %104, align 8, !tbaa !74
  %106 = load i32, ptr %15, align 4, !tbaa !36
  %107 = load i32, ptr %20, align 4, !tbaa !36
  %108 = mul nsw i32 %106, %107
  %109 = sext i32 %108 to i64
  %110 = getelementptr inbounds i16, ptr %105, i64 %109
  store ptr %110, ptr %24, align 8, !tbaa !75
  call void @llvm.lifetime.start.p0(i64 4, ptr %25) #8
  %111 = load ptr, ptr %10, align 8, !tbaa !59
  %112 = getelementptr inbounds nuw %struct.ThreadData, ptr %111, i32 0, i32 6
  %113 = load i32, ptr %112, align 8, !tbaa !84
  %114 = sdiv i32 %113, 2
  store i32 %114, ptr %25, align 4, !tbaa !36
  call void @llvm.lifetime.start.p0(i64 4, ptr %26) #8
  call void @llvm.lifetime.start.p0(i64 4, ptr %27) #8
  call void @llvm.lifetime.start.p0(i64 4, ptr %28) #8
  %115 = load i32, ptr %15, align 4, !tbaa !36
  store i32 %115, ptr %28, align 4, !tbaa !36
  br label %116

116:                                              ; preds = %225, %4
  %117 = load i32, ptr %28, align 4, !tbaa !36
  %118 = load i32, ptr %16, align 4, !tbaa !36
  %119 = icmp slt i32 %117, %118
  br i1 %119, label %120, label %228

120:                                              ; preds = %116
  store i32 0, ptr %27, align 4, !tbaa !36
  br label %121

121:                                              ; preds = %209, %120
  %122 = load i32, ptr %27, align 4, !tbaa !36
  %123 = load ptr, ptr %14, align 8, !tbaa !64
  %124 = getelementptr inbounds nuw %struct.AVFrame, ptr %123, i32 0, i32 3
  %125 = load i32, ptr %124, align 8, !tbaa !77
  %126 = icmp slt i32 %122, %125
  br i1 %126, label %127, label %212

127:                                              ; preds = %121
  store i32 0, ptr %26, align 4, !tbaa !36
  br label %128

128:                                              ; preds = %205, %127
  %129 = load i32, ptr %26, align 4, !tbaa !36
  %130 = load ptr, ptr %10, align 8, !tbaa !59
  %131 = getelementptr inbounds nuw %struct.ThreadData, ptr %130, i32 0, i32 5
  %132 = load i32, ptr %131, align 4, !tbaa !85
  %133 = icmp slt i32 %129, %132
  br i1 %133, label %134, label %208

134:                                              ; preds = %128
  %135 = load ptr, ptr %24, align 8, !tbaa !75
  %136 = load i32, ptr %27, align 4, !tbaa !36
  %137 = sext i32 %136 to i64
  %138 = getelementptr inbounds i16, ptr %135, i64 %137
  %139 = load i16, ptr %138, align 2, !tbaa !78
  %140 = zext i16 %139 to i32
  %141 = load ptr, ptr %11, align 8, !tbaa !64
  %142 = getelementptr inbounds nuw %struct.AVFrame, ptr %141, i32 0, i32 4
  %143 = load i32, ptr %142, align 4, !tbaa !68
  %144 = icmp slt i32 %140, %143
  br i1 %144, label %145, label %188

145:                                              ; preds = %134
  %146 = load ptr, ptr %23, align 8, !tbaa !75
  %147 = load i32, ptr %27, align 4, !tbaa !36
  %148 = sext i32 %147 to i64
  %149 = getelementptr inbounds i16, ptr %146, i64 %148
  %150 = load i16, ptr %149, align 2, !tbaa !78
  %151 = zext i16 %150 to i32
  %152 = load ptr, ptr %11, align 8, !tbaa !64
  %153 = getelementptr inbounds nuw %struct.AVFrame, ptr %152, i32 0, i32 3
  %154 = load i32, ptr %153, align 8, !tbaa !77
  %155 = icmp slt i32 %151, %154
  br i1 %155, label %156, label %188

156:                                              ; preds = %145
  %157 = load ptr, ptr %21, align 8, !tbaa !75
  %158 = load ptr, ptr %24, align 8, !tbaa !75
  %159 = load i32, ptr %27, align 4, !tbaa !36
  %160 = sext i32 %159 to i64
  %161 = getelementptr inbounds i16, ptr %158, i64 %160
  %162 = load i16, ptr %161, align 2, !tbaa !78
  %163 = zext i16 %162 to i32
  %164 = load i32, ptr %18, align 4, !tbaa !36
  %165 = mul nsw i32 %163, %164
  %166 = load ptr, ptr %23, align 8, !tbaa !75
  %167 = load i32, ptr %27, align 4, !tbaa !36
  %168 = sext i32 %167 to i64
  %169 = getelementptr inbounds i16, ptr %166, i64 %168
  %170 = load i16, ptr %169, align 2, !tbaa !78
  %171 = zext i16 %170 to i32
  %172 = load i32, ptr %25, align 4, !tbaa !36
  %173 = mul nsw i32 %171, %172
  %174 = add nsw i32 %165, %173
  %175 = load i32, ptr %26, align 4, !tbaa !36
  %176 = add nsw i32 %174, %175
  %177 = sext i32 %176 to i64
  %178 = getelementptr inbounds i16, ptr %157, i64 %177
  %179 = load i16, ptr %178, align 2, !tbaa !78
  %180 = load ptr, ptr %22, align 8, !tbaa !75
  %181 = load i32, ptr %27, align 4, !tbaa !36
  %182 = load i32, ptr %25, align 4, !tbaa !36
  %183 = mul nsw i32 %181, %182
  %184 = load i32, ptr %26, align 4, !tbaa !36
  %185 = add nsw i32 %183, %184
  %186 = sext i32 %185 to i64
  %187 = getelementptr inbounds i16, ptr %180, i64 %186
  store i16 %179, ptr %187, align 2, !tbaa !78
  br label %204

188:                                              ; preds = %145, %134
  %189 = load ptr, ptr %9, align 8, !tbaa !22
  %190 = getelementptr inbounds nuw %struct.RemapContext, ptr %189, i32 0, i32 6
  %191 = load i32, ptr %26, align 4, !tbaa !36
  %192 = sext i32 %191 to i64
  %193 = getelementptr inbounds [4 x i32], ptr %190, i64 0, i64 %192
  %194 = load i32, ptr %193, align 4, !tbaa !36
  %195 = trunc i32 %194 to i16
  %196 = load ptr, ptr %22, align 8, !tbaa !75
  %197 = load i32, ptr %27, align 4, !tbaa !36
  %198 = load i32, ptr %25, align 4, !tbaa !36
  %199 = mul nsw i32 %197, %198
  %200 = load i32, ptr %26, align 4, !tbaa !36
  %201 = add nsw i32 %199, %200
  %202 = sext i32 %201 to i64
  %203 = getelementptr inbounds i16, ptr %196, i64 %202
  store i16 %195, ptr %203, align 2, !tbaa !78
  br label %204

204:                                              ; preds = %188, %156
  br label %205

205:                                              ; preds = %204
  %206 = load i32, ptr %26, align 4, !tbaa !36
  %207 = add nsw i32 %206, 1
  store i32 %207, ptr %26, align 4, !tbaa !36
  br label %128, !llvm.loop !92

208:                                              ; preds = %128
  br label %209

209:                                              ; preds = %208
  %210 = load i32, ptr %27, align 4, !tbaa !36
  %211 = add nsw i32 %210, 1
  store i32 %211, ptr %27, align 4, !tbaa !36
  br label %121, !llvm.loop !93

212:                                              ; preds = %121
  %213 = load i32, ptr %17, align 4, !tbaa !36
  %214 = load ptr, ptr %22, align 8, !tbaa !75
  %215 = sext i32 %213 to i64
  %216 = getelementptr inbounds i16, ptr %214, i64 %215
  store ptr %216, ptr %22, align 8, !tbaa !75
  %217 = load i32, ptr %19, align 4, !tbaa !36
  %218 = load ptr, ptr %23, align 8, !tbaa !75
  %219 = sext i32 %217 to i64
  %220 = getelementptr inbounds i16, ptr %218, i64 %219
  store ptr %220, ptr %23, align 8, !tbaa !75
  %221 = load i32, ptr %20, align 4, !tbaa !36
  %222 = load ptr, ptr %24, align 8, !tbaa !75
  %223 = sext i32 %221 to i64
  %224 = getelementptr inbounds i16, ptr %222, i64 %223
  store ptr %224, ptr %24, align 8, !tbaa !75
  br label %225

225:                                              ; preds = %212
  %226 = load i32, ptr %28, align 4, !tbaa !36
  %227 = add nsw i32 %226, 1
  store i32 %227, ptr %28, align 4, !tbaa !36
  br label %116, !llvm.loop !94

228:                                              ; preds = %116
  call void @llvm.lifetime.end.p0(i64 4, ptr %28) #8
  call void @llvm.lifetime.end.p0(i64 4, ptr %27) #8
  call void @llvm.lifetime.end.p0(i64 4, ptr %26) #8
  call void @llvm.lifetime.end.p0(i64 4, ptr %25) #8
  call void @llvm.lifetime.end.p0(i64 8, ptr %24) #8
  call void @llvm.lifetime.end.p0(i64 8, ptr %23) #8
  call void @llvm.lifetime.end.p0(i64 8, ptr %22) #8
  call void @llvm.lifetime.end.p0(i64 8, ptr %21) #8
  call void @llvm.lifetime.end.p0(i64 4, ptr %20) #8
  call void @llvm.lifetime.end.p0(i64 4, ptr %19) #8
  call void @llvm.lifetime.end.p0(i64 4, ptr %18) #8
  call void @llvm.lifetime.end.p0(i64 4, ptr %17) #8
  call void @llvm.lifetime.end.p0(i64 4, ptr %16) #8
  call void @llvm.lifetime.end.p0(i64 4, ptr %15) #8
  call void @llvm.lifetime.end.p0(i64 8, ptr %14) #8
  call void @llvm.lifetime.end.p0(i64 8, ptr %13) #8
  call void @llvm.lifetime.end.p0(i64 8, ptr %12) #8
  call void @llvm.lifetime.end.p0(i64 8, ptr %11) #8
  call void @llvm.lifetime.end.p0(i64 8, ptr %10) #8
  call void @llvm.lifetime.end.p0(i64 8, ptr %9) #8
  ret i32 0
}