; Function Attrs: nofree norecurse nosync nounwind memory(readwrite, inaccessiblemem: none) uwtable
define internal noundef i32 @remap_packed16_nearest_slice(ptr noundef readonly captures(none) %0, ptr noundef readonly captures(none) %1, i32 noundef %2, i32 noundef %3) #4 {
  %5 = load ptr, ptr %1, align 8, !tbaa !48
  %6 = getelementptr inbounds nuw i8, ptr %1, i64 8
  %7 = load ptr, ptr %6, align 8, !tbaa !51
  %8 = getelementptr inbounds nuw i8, ptr %1, i64 16
  %9 = load ptr, ptr %8, align 8, !tbaa !52
  %10 = getelementptr inbounds nuw i8, ptr %1, i64 24
  %11 = load ptr, ptr %10, align 8, !tbaa !53
  %12 = getelementptr inbounds nuw i8, ptr %11, i64 108
  %13 = load i32, ptr %12, align 4, !tbaa !54
  %14 = mul nsw i32 %13, %2
  %15 = sdiv i32 %14, %3
  %16 = add nsw i32 %2, 1
  %17 = mul nsw i32 %13, %16
  %18 = sdiv i32 %17, %3
  %19 = getelementptr inbounds nuw i8, ptr %11, i64 64
  %20 = load i32, ptr %19, align 8, !tbaa !45
  %21 = sdiv i32 %20, 2
  %22 = getelementptr inbounds nuw i8, ptr %5, i64 64
  %23 = load i32, ptr %22, align 8, !tbaa !45
  %24 = sdiv i32 %23, 2
  %25 = getelementptr inbounds nuw i8, ptr %7, i64 64
  %26 = load i32, ptr %25, align 8, !tbaa !45
  %27 = sdiv i32 %26, 2
  %28 = getelementptr inbounds nuw i8, ptr %9, i64 64
  %29 = load i32, ptr %28, align 8, !tbaa !45
  %30 = sdiv i32 %29, 2
  %31 = load ptr, ptr %5, align 8, !tbaa !61
  %32 = load ptr, ptr %11, align 8, !tbaa !61
  %33 = mul nsw i32 %21, %15
  %34 = sext i32 %33 to i64
  %35 = getelementptr inbounds i16, ptr %32, i64 %34
  %36 = load ptr, ptr %7, align 8, !tbaa !61
  %37 = mul nsw i32 %27, %15
  %38 = sext i32 %37 to i64
  %39 = getelementptr inbounds i16, ptr %36, i64 %38
  %40 = load ptr, ptr %9, align 8, !tbaa !61
  %41 = mul nsw i32 %30, %15
  %42 = sext i32 %41 to i64
  %43 = getelementptr inbounds i16, ptr %40, i64 %42
  %44 = getelementptr inbounds nuw i8, ptr %1, i64 40
  %45 = load i32, ptr %44, align 8, !tbaa !69
  %46 = sdiv i32 %45, 2
  %47 = icmp slt i32 %15, %18
  br i1 %47, label %.preheader73.lr.ph, label %._crit_edge

.preheader73.lr.ph:                               ; preds = %4
  %48 = getelementptr inbounds nuw i8, ptr %0, i64 72
  %49 = load ptr, ptr %48, align 8, !tbaa !4
  %50 = getelementptr inbounds nuw i8, ptr %11, i64 104
  %51 = load i32, ptr %50, align 8, !tbaa !60
  %52 = icmp sgt i32 %51, 0
  %53 = getelementptr inbounds nuw i8, ptr %5, i64 108
  %54 = getelementptr inbounds nuw i8, ptr %5, i64 104
  %55 = getelementptr inbounds nuw i8, ptr %49, i64 28
  %56 = sext i32 %21 to i64
  %57 = sext i32 %27 to i64
  %58 = sext i32 %30 to i64
  br i1 %52, label %.preheader73.lr.ph.split.us, label %._crit_edge

.preheader73.lr.ph.split.us:                      ; preds = %.preheader73.lr.ph
  %59 = getelementptr inbounds nuw i8, ptr %1, i64 36
  %60 = load i32, ptr %59, align 4, !tbaa !70
  %61 = icmp sgt i32 %60, 0
  br i1 %61, label %.preheader73.lr.ph.split.us.split.us, label %._crit_edge

.preheader73.lr.ph.split.us.split.us:             ; preds = %.preheader73.lr.ph.split.us
  %62 = load i32, ptr %53, align 4, !tbaa !54
  %63 = sext i32 %46 to i64
  %wide.trip.count94 = zext nneg i32 %51 to i64
  %wide.trip.count = zext nneg i32 %60 to i64
  br label %.preheader73.us.us

.preheader73.us.us:                               ; preds = %._crit_edge76.split.us.us.us, %.preheader73.lr.ph.split.us.split.us
  %.083.us.us = phi i32 [ %15, %.preheader73.lr.ph.split.us.split.us ], [ %93, %._crit_edge76.split.us.us.us ]
  %.06881.us.us = phi ptr [ %35, %.preheader73.lr.ph.split.us.split.us ], [ %90, %._crit_edge76.split.us.us.us ]
  %.06979.us.us = phi ptr [ %43, %.preheader73.lr.ph.split.us.split.us ], [ %92, %._crit_edge76.split.us.us.us ]
  %.07077.us.us = phi ptr [ %39, %.preheader73.lr.ph.split.us.split.us ], [ %91, %._crit_edge76.split.us.us.us ]
  br label %.preheader.us.us.us

.preheader.us.us.us:                              ; preds = %._crit_edge.us.us.us, %.preheader73.us.us
  %indvars.iv91 = phi i64 [ %indvars.iv.next92, %._crit_edge.us.us.us ], [ 0, %.preheader73.us.us ]
  %64 = getelementptr inbounds nuw i16, ptr %.06979.us.us, i64 %indvars.iv91
  %65 = getelementptr inbounds nuw i16, ptr %.07077.us.us, i64 %indvars.iv91
  %66 = mul nsw i64 %indvars.iv91, %63
  %invariant.gep97.sink = getelementptr i16, ptr %.06881.us.us, i64 %66
  br label %67

67:                                               ; preds = %89, %.preheader.us.us.us
  %indvars.iv = phi i64 [ %indvars.iv.next, %89 ], [ 0, %.preheader.us.us.us ]
  %68 = load i16, ptr %64, align 2, !tbaa !65
  %69 = zext i16 %68 to i32
  %70 = icmp sgt i32 %62, %69
  br i1 %70, label %71, label %76

71:                                               ; preds = %67
  %72 = load i16, ptr %65, align 2, !tbaa !65
  %73 = zext i16 %72 to i32
  %74 = load i32, ptr %54, align 8, !tbaa !60
  %75 = icmp sgt i32 %74, %73
  br i1 %75, label %80, label %76

76:                                               ; preds = %71, %67
  %77 = getelementptr inbounds nuw [4 x i32], ptr %55, i64 0, i64 %indvars.iv
  %78 = load i32, ptr %77, align 4, !tbaa !45
  %79 = trunc i32 %78 to i16
  br label %89

80:                                               ; preds = %71
  %81 = mul nsw i32 %24, %69
  %82 = mul nsw i32 %46, %73
  %83 = trunc nuw nsw i64 %indvars.iv to i32
  %84 = add i32 %81, %83
  %85 = add i32 %84, %82
  %86 = sext i32 %85 to i64
  %87 = getelementptr inbounds i16, ptr %31, i64 %86
  %88 = load i16, ptr %87, align 2, !tbaa !65
  br label %89

89:                                               ; preds = %80, %76
  %.sink = phi i16 [ %88, %80 ], [ %79, %76 ]
  %gep98 = getelementptr i16, ptr %invariant.gep97.sink, i64 %indvars.iv
  store i16 %.sink, ptr %gep98, align 2, !tbaa !65
  %indvars.iv.next = add nuw nsw i64 %indvars.iv, 1
  %exitcond.not = icmp eq i64 %indvars.iv.next, %wide.trip.count
  br i1 %exitcond.not, label %._crit_edge.us.us.us, label %67, !llvm.loop !77

._crit_edge.us.us.us:                             ; preds = %89
  %indvars.iv.next92 = add nuw nsw i64 %indvars.iv91, 1
  %exitcond95.not = icmp eq i64 %indvars.iv.next92, %wide.trip.count94
  br i1 %exitcond95.not, label %._crit_edge76.split.us.us.us, label %.preheader.us.us.us, !llvm.loop !78

._crit_edge76.split.us.us.us:                     ; preds = %._crit_edge.us.us.us
  %90 = getelementptr inbounds i16, ptr %.06881.us.us, i64 %56
  %91 = getelementptr inbounds i16, ptr %.07077.us.us, i64 %57
  %92 = getelementptr inbounds i16, ptr %.06979.us.us, i64 %58
  %93 = add nsw i32 %.083.us.us, 1
  %exitcond96.not = icmp eq i32 %93, %18
  br i1 %exitcond96.not, label %._crit_edge, label %.preheader73.us.us, !llvm.loop !79

._crit_edge:                                      ; preds = %._crit_edge76.split.us.us.us, %.preheader73.lr.ph.split.us, %.preheader73.lr.ph, %4
  ret i32 0
}